target datalayout = "e-m:e-p270:32:32-p271:32:32-p272:64:64-i64:64-i128:128-f80:128-n8:16:32:64-S128"
target triple = "x86_64-pc-linux-gnu"

%"class.cv::Mat" = type { i32, i32, i32, i32, ptr, ptr, ptr, ptr, ptr, ptr, %"struct.cv::MatSize", %"struct.cv::MatStep" }
%"struct.cv::MatSize" = type { ptr }
%"struct.cv::MatStep" = type { ptr, [2 x i64] }
%"class.cv::detail::Estimator" = type { ptr }
%"class.cv::detail::BundleAdjusterBase" = type { %"class.cv::detail::Estimator", %"class.cv::Mat", i32, i32, i32, i32, ptr, ptr, double, %"class.cv::TermCriteria", %"class.cv::Mat", %"class.std::vector.30" }
%"class.cv::TermCriteria" = type { i32, i32, double }
%"class.std::vector.30" = type { %"struct.std::_Vector_base.31" }
%"struct.std::_Vector_base.31" = type { %"struct.std::_Vector_base<std::pair<int, int>, std::allocator<std::pair<int, int>>>::_Vector_impl" }
%"struct.std::_Vector_base<std::pair<int, int>, std::allocator<std::pair<int, int>>>::_Vector_impl" = type { %"struct.std::_Vector_base<std::pair<int, int>, std::allocator<std::pair<int, int>>>::_Vector_impl_data" }
%"struct.std::_Vector_base<std::pair<int, int>, std::allocator<std::pair<int, int>>>::_Vector_impl_data" = type { ptr, ptr, ptr }
%"class.cv::Range" = type { i32, i32 }
%"class.cv::detail::BundleAdjusterRay" = type { %"class.cv::detail::BundleAdjusterBase", %"class.cv::Mat", %"class.cv::Mat" }

; Function Attrs: inlinehint mustprogress nounwind uwtable
define linkonce_odr hidden noundef nonnull align 8 dereferenceable(8) ptr @_ZNK2cv3Mat2atIdEERKT_ii(ptr noundef nonnull align 8 dereferenceable(96) %0, i32 noundef %1, i32 noundef %2) #7 comdat align 2 {
  %4 = alloca ptr, align 8
  %5 = alloca i32, align 4
  %6 = alloca i32, align 4
  store ptr %0, ptr %4, align 8, !tbaa !165
  store i32 %1, ptr %5, align 4, !tbaa !14
  store i32 %2, ptr %6, align 4, !tbaa !14
  %7 = load ptr, ptr %4, align 8
  %8 = getelementptr inbounds nuw %"class.cv::Mat", ptr %7, i32 0, i32 4
  %9 = load ptr, ptr %8, align 8, !tbaa !170
  %10 = getelementptr inbounds nuw %"class.cv::Mat", ptr %7, i32 0, i32 11
  %11 = getelementptr inbounds nuw %"struct.cv::MatStep", ptr %10, i32 0, i32 0
  %12 = load ptr, ptr %11, align 8, !tbaa !179
  %13 = getelementptr inbounds i64, ptr %12, i64 0
  %14 = load i64, ptr %13, align 8, !tbaa !58
  %15 = load i32, ptr %5, align 4, !tbaa !14
  %16 = sext i32 %15 to i64
  %17 = mul i64 %14, %16
  %18 = getelementptr inbounds nuw i8, ptr %9, i64 %17
  %19 = load i32, ptr %6, align 4, !tbaa !14
  %20 = sext i32 %19 to i64
  %21 = getelementptr inbounds double, ptr %18, i64 %20
  ret ptr %21
}

; Function Attrs: inlinehint mustprogress nounwind uwtable
define linkonce_odr hidden void @_ZN2cv5RangeC2Eii(ptr noundef nonnull align 4 dereferenceable(8) %0, i32 noundef %1, i32 noundef %2) unnamed_addr #7 comdat align 2 {
  %4 = alloca ptr, align 8
  %5 = alloca i32, align 4
  %6 = alloca i32, align 4
  store ptr %0, ptr %4, align 8, !tbaa !256
  store i32 %1, ptr %5, align 4, !tbaa !14
  store i32 %2, ptr %6, align 4, !tbaa !14
  %7 = load ptr, ptr %4, align 8
  %8 = getelementptr inbounds nuw %"class.cv::Range", ptr %7, i32 0, i32 0
  %9 = load i32, ptr %5, align 4, !tbaa !14
  store i32 %9, ptr %8, align 4, !tbaa !258
  %10 = getelementptr inbounds nuw %"class.cv::Range", ptr %7, i32 0, i32 1
  %11 = load i32, ptr %6, align 4, !tbaa !14
  store i32 %11, ptr %10, align 4, !tbaa !260
  ret void
}

; Function Attrs: inlinehint mustprogress uwtable
define linkonce_odr hidden i64 @_ZN2cv5Range3allEv() #9 comdat align 2 {
  %1 = alloca %"class.cv::Range", align 4
  call void @_ZN2cv5RangeC2Eii(ptr noundef nonnull align 4 dereferenceable(8) %1, i32 noundef -2147483648, i32 noundef 2147483647)
  %2 = load i64, ptr %1, align 4
  ret i64 %2
}

; Function Attrs: mustprogress uwtable
define internal void @_ZN12_GLOBAL__N_19calcDerivERKN2cv3MatES3_dS1_(ptr noundef nonnull align 8 dereferenceable(96) %0, ptr noundef nonnull align 8 dereferenceable(96) %1, double noundef %2, ptr noundef %3) #4 {
  %5 = alloca ptr, align 8
  %6 = alloca ptr, align 8
  %7 = alloca double, align 8
  %8 = alloca ptr, align 8
  %9 = alloca i32, align 4
  store ptr %0, ptr %5, align 8, !tbaa !165
  store ptr %1, ptr %6, align 8, !tbaa !165
  store double %2, ptr %7, align 8, !tbaa !22
  store ptr %3, ptr %8, align 8, !tbaa !165
  call void @llvm.lifetime.start.p0(i64 4, ptr %9) #3
  store i32 0, ptr %9, align 4, !tbaa !14
  br label %10

10:                                               ; preds = %31, %4
  %11 = load i32, ptr %9, align 4, !tbaa !14
  %12 = load ptr, ptr %5, align 8, !tbaa !165
  %13 = getelementptr inbounds nuw %"class.cv::Mat", ptr %12, i32 0, i32 2
  %14 = load i32, ptr %13, align 8, !tbaa !167
  %15 = icmp slt i32 %11, %14
  br i1 %15, label %17, label %16

16:                                               ; preds = %10
  call void @llvm.lifetime.end.p0(i64 4, ptr %9) #3
  br label %34

17:                                               ; preds = %10
  %18 = load ptr, ptr %6, align 8, !tbaa !165
  %19 = load i32, ptr %9, align 4, !tbaa !14
  %20 = call noundef nonnull align 8 dereferenceable(8) ptr @_ZNK2cv3Mat2atIdEERKT_ii(ptr noundef nonnull align 8 dereferenceable(96) %18, i32 noundef %19, i32 noundef 0)
  %21 = load double, ptr %20, align 8, !tbaa !22
  %22 = load ptr, ptr %5, align 8, !tbaa !165
  %23 = load i32, ptr %9, align 4, !tbaa !14
  %24 = call noundef nonnull align 8 dereferenceable(8) ptr @_ZNK2cv3Mat2atIdEERKT_ii(ptr noundef nonnull align 8 dereferenceable(96) %22, i32 noundef %23, i32 noundef 0)
  %25 = load double, ptr %24, align 8, !tbaa !22
  %26 = fsub double %21, %25
  %27 = load double, ptr %7, align 8, !tbaa !22
  %28 = fdiv double %26, %27
  %29 = load i32, ptr %9, align 4, !tbaa !14
  %30 = call noundef nonnull align 8 dereferenceable(8) ptr @_ZN2cv3Mat2atIdEERT_ii(ptr noundef nonnull align 8 dereferenceable(96) %3, i32 noundef %29, i32 noundef 0)
  store double %28, ptr %30, align 8, !tbaa !22
  br label %31

31:                                               ; preds = %17
  %32 = load i32, ptr %9, align 4, !tbaa !14
  %33 = add nsw i32 %32, 1
  store i32 %33, ptr %9, align 4, !tbaa !14
  br label %10, !llvm.loop !230

34:                                               ; preds = %16
  ret void
}

; Function Attrs: inlinehint mustprogress uwtable
define linkonce_odr hidden void @_ZNK2cv3Mat3colEi(ptr dead_on_unwind noalias writable sret(%"class.cv::Mat") align 8 %0, ptr noundef nonnull align 8 dereferenceable(96) %1, i32 noundef %2) #9 comdat align 2 {
  %4 = alloca ptr, align 8
  %5 = alloca ptr, align 8
  %6 = alloca i32, align 4
  %7 = alloca %"class.cv::Range", align 4
  %8 = alloca %"class.cv::Range", align 4
  store ptr %0, ptr %4, align 8
  store ptr %1, ptr %5, align 8, !tbaa !165
  store i32 %2, ptr %6, align 4, !tbaa !14
  %9 = load ptr, ptr %5, align 8
  call void @llvm.lifetime.start.p0(i64 8, ptr %7) #3
  %10 = call i64 @_ZN2cv5Range3allEv()
  store i64 %10, ptr %7, align 4
  call void @llvm.lifetime.start.p0(i64 8, ptr %8) #3
  %11 = load i32, ptr %6, align 4, !tbaa !14
  %12 = load i32, ptr %6, align 4, !tbaa !14
  %13 = add nsw i32 %12, 1
  call void @_ZN2cv5RangeC2Eii(ptr noundef nonnull align 4 dereferenceable(8) %8, i32 noundef %11, i32 noundef %13)
  call void @_ZN2cv3MatC1ERKS0_RKNS_5RangeES5_(ptr noundef nonnull align 8 dereferenceable(96) %0, ptr noundef nonnull align 8 dereferenceable(96) %9, ptr noundef nonnull align 4 dereferenceable(8) %7, ptr noundef nonnull align 4 dereferenceable(8) %8)
  call void @llvm.lifetime.end.p0(i64 8, ptr %8) #3
  call void @llvm.lifetime.end.p0(i64 8, ptr %7) #3
  ret void
}

; Function Attrs: inlinehint mustprogress nounwind uwtable
define linkonce_odr hidden noundef nonnull align 8 dereferenceable(8) ptr @_ZN2cv3Mat2atIdEERT_ii(ptr noundef nonnull align 8 dereferenceable(96) %0, i32 noundef %1, i32 noundef %2) #7 comdat align 2 {
  %4 = alloca ptr, align 8
  %5 = alloca i32, align 4
  %6 = alloca i32, align 4
  store ptr %0, ptr %4, align 8, !tbaa !165
  store i32 %1, ptr %5, align 4, !tbaa !14
  store i32 %2, ptr %6, align 4, !tbaa !14
  %7 = load ptr, ptr %4, align 8
  %8 = getelementptr inbounds nuw %"class.cv::Mat", ptr %7, i32 0, i32 4
  %9 = load ptr, ptr %8, align 8, !tbaa !170
  %10 = getelementptr inbounds nuw %"class.cv::Mat", ptr %7, i32 0, i32 11
  %11 = getelementptr inbounds nuw %"struct.cv::MatStep", ptr %10, i32 0, i32 0
  %12 = load ptr, ptr %11, align 8, !tbaa !179
  %13 = getelementptr inbounds i64, ptr %12, i64 0
  %14 = load i64, ptr %13, align 8, !tbaa !58
  %15 = load i32, ptr %5, align 4, !tbaa !14
  %16 = sext i32 %15 to i64
  %17 = mul i64 %14, %16
  %18 = getelementptr inbounds nuw i8, ptr %9, i64 %17
  %19 = load i32, ptr %6, align 4, !tbaa !14
  %20 = sext i32 %19 to i64
  %21 = getelementptr inbounds double, ptr %18, i64 %20
  ret ptr %21
}

; Function Attrs: mustprogress uwtable
define void @_ZN2cv6detail17BundleAdjusterRay12calcJacobianERNS_3MatE(ptr noundef nonnull align 8 dereferenceable(472) %0, ptr noundef nonnull align 8 dereferenceable(96) %1) unnamed_addr #4 align 2 personality ptr @__gxx_personality_v0 {
  %3 = alloca ptr, align 8
  %4 = alloca ptr, align 8
  %5 = alloca double, align 8
  %6 = alloca double, align 8
  %7 = alloca i32, align 4
  %8 = alloca i32, align 4
  %9 = alloca i32, align 4
  %10 = alloca %"class.cv::Mat", align 8
  %11 = alloca ptr, align 8
  %12 = alloca i32, align 4
  store ptr %0, ptr %3, align 8, !tbaa !231
  store ptr %1, ptr %4, align 8, !tbaa !165
  %13 = load ptr, ptr %3, align 8
  %14 = load ptr, ptr %4, align 8, !tbaa !165
  %15 = getelementptr inbounds nuw %"class.cv::detail::BundleAdjusterBase", ptr %13, i32 0, i32 3
  %16 = load i32, ptr %15, align 4, !tbaa !139
  %17 = mul nsw i32 %16, 3
  %18 = getelementptr inbounds nuw %"class.cv::detail::BundleAdjusterBase", ptr %13, i32 0, i32 2
  %19 = load i32, ptr %18, align 8, !tbaa !123
  %20 = mul nsw i32 %19, 4
  call void @_ZN2cv3Mat6createEiii(ptr noundef nonnull align 8 dereferenceable(96) %14, i32 noundef %17, i32 noundef %20, i32 noundef 6)
  call void @llvm.lifetime.start.p0(i64 8, ptr %5) #3
  call void @llvm.lifetime.start.p0(i64 8, ptr %6) #3
  store double 1.000000e-03, ptr %6, align 8, !tbaa !22
  call void @llvm.lifetime.start.p0(i64 4, ptr %7) #3
  store i32 0, ptr %7, align 4, !tbaa !14
  br label %21

21:                                               ; preds = %87, %2
  %22 = load i32, ptr %7, align 4, !tbaa !14
  %23 = getelementptr inbounds nuw %"class.cv::detail::BundleAdjusterBase", ptr %13, i32 0, i32 2
  %24 = load i32, ptr %23, align 8, !tbaa !123
  %25 = icmp slt i32 %22, %24
  br i1 %25, label %27, label %26

26:                                               ; preds = %21
  store i32 2, ptr %8, align 4
  call void @llvm.lifetime.end.p0(i64 4, ptr %7) #3
  br label %90

27:                                               ; preds = %21
  call void @llvm.lifetime.start.p0(i64 4, ptr %9) #3
  store i32 0, ptr %9, align 4, !tbaa !14
  br label %28

28:                                               ; preds = %79, %27
  %29 = load i32, ptr %9, align 4, !tbaa !14
  %30 = icmp slt i32 %29, 4
  br i1 %30, label %32, label %31

31:                                               ; preds = %28
  store i32 5, ptr %8, align 4
  call void @llvm.lifetime.end.p0(i64 4, ptr %9) #3
  br label %86

32:                                               ; preds = %28
  %33 = getelementptr inbounds nuw %"class.cv::detail::BundleAdjusterBase", ptr %13, i32 0, i32 10
  %34 = load i32, ptr %7, align 4, !tbaa !14
  %35 = mul nsw i32 %34, 4
  %36 = load i32, ptr %9, align 4, !tbaa !14
  %37 = add nsw i32 %35, %36
  %38 = call noundef nonnull align 8 dereferenceable(8) ptr @_ZN2cv3Mat2atIdEERT_ii(ptr noundef nonnull align 8 dereferenceable(96) %33, i32 noundef %37, i32 noundef 0)
  %39 = load double, ptr %38, align 8, !tbaa !22
  store double %39, ptr %5, align 8, !tbaa !22
  %40 = load double, ptr %5, align 8, !tbaa !22
  %41 = fsub double %40, 1.000000e-03
  %42 = getelementptr inbounds nuw %"class.cv::detail::BundleAdjusterBase", ptr %13, i32 0, i32 10
  %43 = load i32, ptr %7, align 4, !tbaa !14
  %44 = mul nsw i32 %43, 4
  %45 = load i32, ptr %9, align 4, !tbaa !14
  %46 = add nsw i32 %44, %45
  %47 = call noundef nonnull align 8 dereferenceable(8) ptr @_ZN2cv3Mat2atIdEERT_ii(ptr noundef nonnull align 8 dereferenceable(96) %42, i32 noundef %46, i32 noundef 0)
  store double %41, ptr %47, align 8, !tbaa !22
  %48 = getelementptr inbounds nuw %"class.cv::detail::BundleAdjusterRay", ptr %13, i32 0, i32 1
  %49 = load ptr, ptr %13, align 8, !tbaa !133
  %50 = getelementptr inbounds ptr, ptr %49, i64 5
  %51 = load ptr, ptr %50, align 8
  call void %51(ptr noundef nonnull align 8 dereferenceable(472) %13, ptr noundef nonnull align 8 dereferenceable(96) %48)
  %52 = load double, ptr %5, align 8, !tbaa !22
  %53 = fadd double %52, 1.000000e-03
  %54 = getelementptr inbounds nuw %"class.cv::detail::BundleAdjusterBase", ptr %13, i32 0, i32 10
  %55 = load i32, ptr %7, align 4, !tbaa !14
  %56 = mul nsw i32 %55, 4
  %57 = load i32, ptr %9, align 4, !tbaa !14
  %58 = add nsw i32 %56, %57
  %59 = call noundef nonnull align 8 dereferenceable(8) ptr @_ZN2cv3Mat2atIdEERT_ii(ptr noundef nonnull align 8 dereferenceable(96) %54, i32 noundef %58, i32 noundef 0)
  store double %53, ptr %59, align 8, !tbaa !22
  %60 = getelementptr inbounds nuw %"class.cv::detail::BundleAdjusterRay", ptr %13, i32 0, i32 2
  %61 = load ptr, ptr %13, align 8, !tbaa !133
  %62 = getelementptr inbounds ptr, ptr %61, i64 5
  %63 = load ptr, ptr %62, align 8
  call void %63(ptr noundef nonnull align 8 dereferenceable(472) %13, ptr noundef nonnull align 8 dereferenceable(96) %60)
  %64 = getelementptr inbounds nuw %"class.cv::detail::BundleAdjusterRay", ptr %13, i32 0, i32 1
  %65 = getelementptr inbounds nuw %"class.cv::detail::BundleAdjusterRay", ptr %13, i32 0, i32 2
  %66 = load ptr, ptr %4, align 8, !tbaa !165
  %67 = load i32, ptr %7, align 4, !tbaa !14
  %68 = mul nsw i32 %67, 4
  %69 = load i32, ptr %9, align 4, !tbaa !14
  %70 = add nsw i32 %68, %69
  call void @_ZNK2cv3Mat3colEi(ptr dead_on_unwind writable sret(%"class.cv::Mat") align 8 %10, ptr noundef nonnull align 8 dereferenceable(96) %66, i32 noundef %70)
  invoke void @_ZN12_GLOBAL__N_19calcDerivERKN2cv3MatES3_dS1_(ptr noundef nonnull align 8 dereferenceable(96) %64, ptr noundef nonnull align 8 dereferenceable(96) %65, double noundef 2.000000e-03, ptr noundef %10)
          to label %71 unwind label %82

71:                                               ; preds = %32
  call void @_ZN2cv3MatD1Ev(ptr noundef nonnull align 8 dereferenceable(96) %10) #3
  %72 = load double, ptr %5, align 8, !tbaa !22
  %73 = getelementptr inbounds nuw %"class.cv::detail::BundleAdjusterBase", ptr %13, i32 0, i32 10
  %74 = load i32, ptr %7, align 4, !tbaa !14
  %75 = mul nsw i32 %74, 4
  %76 = load i32, ptr %9, align 4, !tbaa !14
  %77 = add nsw i32 %75, %76
  %78 = call noundef nonnull align 8 dereferenceable(8) ptr @_ZN2cv3Mat2atIdEERT_ii(ptr noundef nonnull align 8 dereferenceable(96) %73, i32 noundef %77, i32 noundef 0)
  store double %72, ptr %78, align 8, !tbaa !22
  br label %79

79:                                               ; preds = %71
  %80 = load i32, ptr %9, align 4, !tbaa !14
  %81 = add nsw i32 %80, 1
  store i32 %81, ptr %9, align 4, !tbaa !14
  br label %28, !llvm.loop !237

82:                                               ; preds = %32
  %83 = landingpad { ptr, i32 }
          cleanup
  %84 = extractvalue { ptr, i32 } %83, 0
  store ptr %84, ptr %11, align 8
  %85 = extractvalue { ptr, i32 } %83, 1
  store i32 %85, ptr %12, align 4
  call void @_ZN2cv3MatD1Ev(ptr noundef nonnull align 8 dereferenceable(96) %10) #3
  call void @llvm.lifetime.end.p0(i64 4, ptr %9) #3
  call void @llvm.lifetime.end.p0(i64 4, ptr %7) #3
  call void @llvm.lifetime.end.p0(i64 8, ptr %6) #3
  call void @llvm.lifetime.end.p0(i64 8, ptr %5) #3
  br label %91

86:                                               ; preds = %31
  br label %87

87:                                               ; preds = %86
  %88 = load i32, ptr %7, align 4, !tbaa !14
  %89 = add nsw i32 %88, 1
  store i32 %89, ptr %7, align 4, !tbaa !14
  br label %21, !llvm.loop !238

90:                                               ; preds = %26
  call void @llvm.lifetime.end.p0(i64 8, ptr %6) #3
  call void @llvm.lifetime.end.p0(i64 8, ptr %5) #3
  ret void

91:                                               ; preds = %82
  %92 = load ptr, ptr %11, align 8
  %93 = load i32, ptr %12, align 4
  %94 = insertvalue { ptr, i32 } poison, ptr %92, 0
  %95 = insertvalue { ptr, i32 } %94, i32 %93, 1
  resume { ptr, i32 } %95
}